target datalayout = "e-m:e-p270:32:32-p271:32:32-p272:64:64-i64:64-i128:128-f80:128-n8:16:32:64-S128"
target triple = "x86_64-pc-linux-gnu"

%"class.duckdb_re2::Mutex" = type { %union.pthread_rwlock_t }
%union.pthread_rwlock_t = type { %struct.__pthread_rwlock_arch_t }
%struct.__pthread_rwlock_arch_t = type { i32, i32, i32, i32, i32, i32, i32, i32, i8, [7 x i8], i64, i32 }
%"class.duckdb_re2::DFA::RWLocker" = type <{ ptr, i8, [7 x i8] }>

@.str.18 = private unnamed_addr constant [20 x i8] c"RE2 pthread failure\00", align 1
@_ZTISt13runtime_error = external constant ptr

; Function Attrs: inlinehint mustprogress uwtable
define linkonce_odr hidden void @_ZN10duckdb_re25Mutex6UnlockEv(ptr noundef nonnull align 8 dereferenceable(56) %0) #2 comdat align 2 personality ptr @__gxx_personality_v0 {
  %2 = alloca ptr, align 8
  %3 = alloca ptr, align 8
  %4 = alloca i32, align 4
  store ptr %0, ptr %2, align 8, !tbaa !48
  %5 = load ptr, ptr %2, align 8
  br label %6

6:                                                ; preds = %1
  %7 = getelementptr inbounds nuw %"class.duckdb_re2::Mutex", ptr %5, i32 0, i32 0
  %8 = call i32 @pthread_rwlock_unlock(ptr noundef %7) #17
  %9 = icmp ne i32 %8, 0
  br i1 %9, label %10, label %17

10:                                               ; preds = %6
  %11 = call ptr @__cxa_allocate_exception(i64 16) #17
  invoke void @_ZNSt13runtime_errorC1EPKc(ptr noundef nonnull align 8 dereferenceable(16) %11, ptr noundef @.str.18)
          to label %12 unwind label %13

12:                                               ; preds = %10
  call void @__cxa_throw(ptr %11, ptr @_ZTISt13runtime_error, ptr @_ZNSt13runtime_errorD1Ev) #20
  unreachable

13:                                               ; preds = %10
  %14 = landingpad { ptr, i32 }
          cleanup
  %15 = extractvalue { ptr, i32 } %14, 0
  store ptr %15, ptr %3, align 8
  %16 = extractvalue { ptr, i32 } %14, 1
  store i32 %16, ptr %4, align 4
  call void @__cxa_free_exception(ptr %11) #17
  br label %19

17:                                               ; preds = %6
  br label %18

18:                                               ; preds = %17
  ret void

19:                                               ; preds = %13
  %20 = load ptr, ptr %3, align 8
  %21 = load i32, ptr %4, align 4
  %22 = insertvalue { ptr, i32 } poison, ptr %20, 0
  %23 = insertvalue { ptr, i32 } %22, i32 %21, 1
  resume { ptr, i32 } %23
}

; Function Attrs: inlinehint mustprogress uwtable
define linkonce_odr hidden void @_ZN10duckdb_re25Mutex12WriterUnlockEv(ptr noundef nonnull align 8 dereferenceable(56) %0) #2 comdat align 2 {
  %2 = alloca ptr, align 8
  store ptr %0, ptr %2, align 8, !tbaa !48
  %3 = load ptr, ptr %2, align 8
  call void @_ZN10duckdb_re25Mutex6UnlockEv(ptr noundef nonnull align 8 dereferenceable(56) %3)
  ret void
}

; Function Attrs: inlinehint mustprogress uwtable
define linkonce_odr hidden void @_ZN10duckdb_re25Mutex12ReaderUnlockEv(ptr noundef nonnull align 8 dereferenceable(56) %0) #2 comdat align 2 personality ptr @__gxx_personality_v0 {
  %2 = alloca ptr, align 8
  %3 = alloca ptr, align 8
  %4 = alloca i32, align 4
  store ptr %0, ptr %2, align 8, !tbaa !48
  %5 = load ptr, ptr %2, align 8
  br label %6

6:                                                ; preds = %1
  %7 = getelementptr inbounds nuw %"class.duckdb_re2::Mutex", ptr %5, i32 0, i32 0
  %8 = call i32 @pthread_rwlock_unlock(ptr noundef %7) #17
  %9 = icmp ne i32 %8, 0
  br i1 %9, label %10, label %17

10:                                               ; preds = %6
  %11 = call ptr @__cxa_allocate_exception(i64 16) #17
  invoke void @_ZNSt13runtime_errorC1EPKc(ptr noundef nonnull align 8 dereferenceable(16) %11, ptr noundef @.str.18)
          to label %12 unwind label %13

12:                                               ; preds = %10
  call void @__cxa_throw(ptr %11, ptr @_ZTISt13runtime_error, ptr @_ZNSt13runtime_errorD1Ev) #20
  unreachable

13:                                               ; preds = %10
  %14 = landingpad { ptr, i32 }
          cleanup
  %15 = extractvalue { ptr, i32 } %14, 0
  store ptr %15, ptr %3, align 8
  %16 = extractvalue { ptr, i32 } %14, 1
  store i32 %16, ptr %4, align 4
  call void @__cxa_free_exception(ptr %11) #17
  br label %19

17:                                               ; preds = %6
  br label %18

18:                                               ; preds = %17
  ret void

19:                                               ; preds = %13
  %20 = load ptr, ptr %3, align 8
  %21 = load i32, ptr %4, align 4
  %22 = insertvalue { ptr, i32 } poison, ptr %20, 0
  %23 = insertvalue { ptr, i32 } %22, i32 %21, 1
  resume { ptr, i32 } %23
}

; Function Attrs: mustprogress nounwind uwtable
define hidden void @_ZN10duckdb_re23DFA8RWLockerD2Ev(ptr noundef nonnull align 8 dereferenceable(9) %0) unnamed_addr #0 align 2 personality ptr @__gxx_personality_v0 {
  %2 = alloca ptr, align 8
  store ptr %0, ptr %2, align 8, !tbaa !181
  %3 = load ptr, ptr %2, align 8
  %4 = getelementptr inbounds nuw %"class.duckdb_re2::DFA::RWLocker", ptr %3, i32 0, i32 1
  %5 = load i8, ptr %4, align 8, !tbaa !185, !range !7, !noundef !8
  %6 = trunc i8 %5 to i1
  br i1 %6, label %11, label %7

7:                                                ; preds = %1
  %8 = getelementptr inbounds nuw %"class.duckdb_re2::DFA::RWLocker", ptr %3, i32 0, i32 0
  %9 = load ptr, ptr %8, align 8, !tbaa !183
  invoke void @_ZN10duckdb_re25Mutex12ReaderUnlockEv(ptr noundef nonnull align 8 dereferenceable(56) %9)
          to label %10 unwind label %16

10:                                               ; preds = %7
  br label %15

11:                                               ; preds = %1
  %12 = getelementptr inbounds nuw %"class.duckdb_re2::DFA::RWLocker", ptr %3, i32 0, i32 0
  %13 = load ptr, ptr %12, align 8, !tbaa !183
  invoke void @_ZN10duckdb_re25Mutex12WriterUnlockEv(ptr noundef nonnull align 8 dereferenceable(56) %13)
          to label %14 unwind label %16

14:                                               ; preds = %11
  br label %15

15:                                               ; preds = %14, %10
  ret void

16:                                               ; preds = %11, %7
  %17 = landingpad { ptr, i32 }
          catch ptr null
  %18 = extractvalue { ptr, i32 } %17, 0
  call void @__clang_call_terminate(ptr %18) #21
  unreachable
}