; Function Attrs: mustprogress nounwind uwtable
define hidden void @_ZN10duckdb_re23DFA8RWLockerD2Ev(ptr noundef nonnull readonly align 8 captures(none) dereferenceable(9) %0) unnamed_addr #6 align 2 personality ptr @__gxx_personality_v0 {
  %2 = getelementptr inbounds nuw i8, ptr %0, i64 8
  %3 = load i8, ptr %2, align 8, !tbaa !156, !range !117, !noundef !118
  %4 = trunc nuw i8 %3 to i1
  %5 = load ptr, ptr %0, align 8, !tbaa !154
  %6 = tail call i32 @pthread_rwlock_unlock(ptr noundef nonnull align 8 dereferenceable(56) %5) #20
  %.not.i.i = icmp eq i32 %6, 0
  br i1 %4, label %12, label %7

7:                                                ; preds = %1
  br i1 %.not.i.i, label %_ZN10duckdb_re25Mutex12ReaderUnlockEv.exit, label %8

8:                                                ; preds = %7
  %9 = tail call ptr @__cxa_allocate_exception(i64 16) #20
  invoke void @_ZNSt13runtime_errorC1EPKc(ptr noundef nonnull align 8 dereferenceable(16) %9, ptr noundef nonnull @.str.18)
          to label %.invoke unwind label %10

10:                                               ; preds = %8
  %11 = landingpad { ptr, i32 }
          catch ptr null
  tail call void @__cxa_free_exception(ptr nonnull %9) #20
  br label %.body

12:                                               ; preds = %1
  br i1 %.not.i.i, label %_ZN10duckdb_re25Mutex12ReaderUnlockEv.exit, label %13

13:                                               ; preds = %12
  %14 = tail call ptr @__cxa_allocate_exception(i64 16) #20
  invoke void @_ZNSt13runtime_errorC1EPKc(ptr noundef nonnull align 8 dereferenceable(16) %14, ptr noundef nonnull @.str.18)
          to label %.invoke unwind label %16

.invoke:                                          ; preds = %13, %8
  %15 = phi ptr [ %9, %8 ], [ %14, %13 ]
  invoke void @__cxa_throw(ptr nonnull %15, ptr nonnull @_ZTISt13runtime_error, ptr nonnull @_ZNSt13runtime_errorD1Ev) #21
          to label %.cont unwind label %18

.cont:                                            ; preds = %.invoke
  unreachable

16:                                               ; preds = %13
  %17 = landingpad { ptr, i32 }
          catch ptr null
  tail call void @__cxa_free_exception(ptr nonnull %14) #20
  br label %.body

_ZN10duckdb_re25Mutex12ReaderUnlockEv.exit:       ; preds = %12, %7
  ret void

18:                                               ; preds = %.invoke
  %19 = landingpad { ptr, i32 }
          catch ptr null
  br label %.body

.body:                                            ; preds = %18, %16, %10
  %eh.lpad-body = phi { ptr, i32 } [ %11, %10 ], [ %19, %18 ], [ %17, %16 ]
  %20 = extractvalue { ptr, i32 } %eh.lpad-body, 0
  tail call void @__clang_call_terminate(ptr %20) #24
  unreachable
}